(lp1
(F729.2630615234375
F177.19857788085938
tp2
a(F719.62640380859375
F183.62637329101562
tp3
a(F722
F182
tp4
a(F36.126968383789062
F297
tp5
a(F34.075244903564453
F300
tp6
a(F47.144489288330078
F300.16848754882812
tp7
a(F104
F303
tp8
a(F31.924999237060547
F307
tp9
a(F37
F306.1640625
tp10
a(F87.776924133300781
F306.4859619140625
tp11
a(F106.13890075683594
F306.84689331054688
tp12
a(F28.149999618530273
F307
tp13
a(F84
F310
tp14
a(F903.837646484375
F310.83761596679688
tp15
a(F898
F311.93914794921875
tp16
a(F906.60400390625
F311.48452758789062
tp17
a(F936.21502685546875
F310.715087890625
tp18
a(F867.06683349609375
F312
tp19
a(F52
F315
tp20
a(F962.87744140625
F314.92111206054688
tp21
a(F165.09161376953125
F316
tp22
a(F935
F316
tp23
a(F152
F315.067626953125
tp24
a(F949.8868408203125
F315.97091674804688
tp25
a(F968.8568115234375
F316.8568115234375
tp26
a(F80.129043579101562
F316.87704467773438
tp27
a(F238.76094055175781
F317.34588623046875
tp28
a(F486.90069580078125
F317.90069580078125
tp29
a(F115.05674743652344
F319
tp30
a(F121.64730834960938
F317
tp31
a(F231
F317.10430908203125
tp32
a(F234.98184204101562
F318.9293212890625
tp33
a(F699.86859130859375
F319
tp34
a(F77
F319.88607788085938
tp35
a(F52
F320.83822631835938
tp36
a(F65.318801879882812
F320.130126953125
tp37
a(F127.95729064941406
F321
tp38
a(F216.79141235351562
F320.64230346679688
tp39
a(F220.96728515625
F320.96261596679688
tp40
a(F282.014892578125
F319.014892578125
tp41
a(F286
F321
tp42
a(F369.03524780273438
F319.0517578125
tp43
a(F478.82876586914062
F319.35507202148438
tp44
a(F703.97412109375
F319.20712280273438
tp45
a(F854.071044921875
F319
tp46
a(F859
F320.77658081054688
tp47
a(F968.04754638671875
F321
tp48
a(F115.42839813232422
F322
tp49
a(F130.782470703125
F320.05450439453125
tp50
a(F141
F320.04052734375
tp51
a(F144.20016479492188
F322
tp52
a(F214.12161254882812
F320.64370727539062
tp53
a(F358.917724609375
F321.07598876953125
tp54
a(F384.98553466796875
F321.58682250976562
tp55
a(F445
F322
tp56
a(F715
F322
tp57
a(F849
F320.042236328125
tp58
a(F124
F321.10714721679688
tp59
a(F191.67146301269531
F322.2872314453125
tp60
a(F277.01776123046875
F323
tp61
a(F457.9046630859375
F321
tp62
a(F466
F321.57574462890625
tp63
a(F505.26416015625
F322.26416015625
tp64
a(F675
F322.989501953125
tp65
a(F682.9580078125
F322.9632568359375
tp66
a(F684.96112060546875
F321.953125
tp67
a(F755.95648193359375
F323
tp68
a(F760.4320068359375
F322.27828979492188
tp69
a(F78.986122131347656
F323.98611450195312
tp70
a(F175
F324
tp71
a(F427
F324
tp72
a(F472
F323.96481323242188
tp73
a(F720
F322.0439453125
tp74
a(F748.730712890625
F322.730712890625
tp75
a(F769.7855224609375
F324
tp76
a(F281
F324.5714111328125
tp77
a(F295.12713623046875
F323
tp78
a(F370.20657348632812
F323.20657348632812
tp79
a(F378
F323
tp80
a(F493
F325
tp81
a(F546.08349609375
F324.91653442382812
tp82
a(F553.81317138671875
F324.19869995117188
tp83
a(F567.90570068359375
F324.94088745117188
tp84
a(F753.66473388671875
F325
tp85
a(F772.9866943359375
F324.9866943359375
tp86
a(F142.29411315917969
F325.29412841796875
tp87
a(F149
F325.75
tp88
a(F292.76724243164062
F325.1767578125
tp89
a(F335.16281127929688
F324
tp90
a(F375.25152587890625
F325.12774658203125
tp91
a(F388
F324.00775146484375
tp92
a(F504.98989868164062
F325.98477172851562
tp93
a(F655
F325.14205932617188
tp94
a(F683
F324
tp95
a(F705.95233154296875
F325.95565795898438
tp96
a(F725.10797119140625
F325.98651123046875
tp97
a(F139.32408142089844
F325.3240966796875
tp98
a(F227.14424133300781
F326.848876953125
tp99
a(F247.31805419921875
F326.2406005859375
tp100
a(F338.96408081054688
F325.01016235351562
tp101
a(F381.74066162109375
F325.58535766601562
tp102
a(F402.97979736328125
F325.970458984375
tp103
a(F417
F327
tp104
a(F616.3858642578125
F326.5540771484375
tp105
a(F618.05255126953125
F325
tp106
a(F631.93280029296875
F326.93414306640625
tp107
a(F669.06268310546875
F327
tp108
a(F108.94762420654297
F326.09182739257812
tp109
a(F179.90669250488281
F326
tp110
a(F183
F328
tp111
a(F211
F326
tp112
a(F233
F327.9803466796875
tp113
a(F312.02825927734375
F328
tp114
a(F342.10635375976562
F328
tp115
a(F430.00430297851562
F326.00430297851562
tp116
a(F499.209228515625
F326.78085327148438
tp117
a(F831
F328
tp118
a(F838.39678955078125
F327.07568359375
tp119
a(F104
F329
tp120
a(F205.79777526855469
F328.05194091796875
tp121
a(F260
F328.93069458007812
tp122
a(F304.99594116210938
F327.03244018554688
tp123
a(F331.84317016601562
F328.84317016601562
tp124
a(F359
F328.951416015625
tp125
a(F501
F328.994384765625
tp126
a(F545.03338623046875
F328.97048950195312
tp127
a(F611.75146484375
F328.16635131835938
tp128
a(F200.87774658203125
F328.12225341796875
tp129
a(F252.01695251464844
F328
tp130
a(F267
F328.16348266601562
tp131
a(F281.29348754882812
F328.29348754882812
tp132
a(F295
F330
tp133
a(F667.559326171875
F328
tp134
a(F211
F330.94293212890625
tp135
a(F523.1357421875
F331
tp136
a(F561
F331
tp137
a(F671
F329
tp138
a(F264.2279052734375
F330.8531494140625
tp139
a(F510.04949951171875
F330.04510498046875
tp140
a(F532
F330.00738525390625
tp141
a(F582.86688232421875
F330.01663208007812
tp142
a(F50.97845458984375
F332.96517944335938
tp143
a(F187
F333
tp144
a(F217.87319946289062
F332.8551025390625
tp145
a(F300.06216430664062
F333
tp146
a(F334
F333
tp147
a(F558.28411865234375
F333
tp148
a(F765.3624267578125
F331.59881591796875
tp149
a(F815.0740966796875
F331.07406616210938
tp150
a(F122.6495361328125
F332.72702026367188
tp151
a(F140
F334
tp152
a(F395
F332
tp153
a(F425.96441650390625
F332
tp154
a(F321.98321533203125
F334.182373046875
tp155
a(F528.0115966796875
F333.0115966796875
tp156
a(F564.01300048828125
F333
tp157
a(F790.42901611328125
F333.81134033203125
tp158
a(F254.02735900878906
F335.97265625
tp159
a(F262
F334.28836059570312
tp160
a(F112.30188751220703
F337
tp161
a(F428.75564575195312
F335.24435424804688
tp162
a(F788
F335.06600952148438
tp163
a(F934.58123779296875
F335.93212890625
tp164
a(F155.74729919433594
F336.03158569335938
tp165
a(F194.98257446289062
F336.01904296875
tp166
a(F112.843505859375
F337.63641357421875
tp167
a(F185
F339
tp168
a(F226.75
F339
tp169
a(F233.65409851074219
F337.65411376953125
tp170
a(F255.8726806640625
F337.1273193359375
tp171
a(F265.17221069335938
F339
tp172
a(F430
F338.71731567382812
tp173
a(F500.93441772460938
F338.93441772460938
tp174
a(F774
F339
tp175
a(F777.76263427734375
F338.9486083984375
tp176
a(F809
F337.26190185546875
tp177
a(F211
F338
tp178
a(F747.0506591796875
F340
tp179
a(F133.98564147949219
F339.97640991210938
tp180
a(F349
F339.03158569335938
tp181
a(F596.04583740234375
F339.05020141601562
tp182
a(F645.77325439453125
F340.43402099609375
tp183
a(F248.00816345214844
F342
tp184
a(F424.51870727539062
F342
tp185
a(F460
F341.29931640625
tp186
a(F788
F341.69479370117188
tp187
a(F952.9544677734375
F340.03671264648438
tp188
a(F149.87832641601562
F342.088134765625
tp189
a(F157
F343
tp190
a(F330.63168334960938
F342.50650024414062
tp191
a(F340.99005126953125
F343
tp192
a(F903
F343
tp193
a(F256.68771362304688
F343.11758422851562
tp194
a(F310
F343.9207763671875
tp195
a(F314.57205200195312
F342.79067993164062
tp196
a(F318
F342.28594970703125
tp197
a(F334
F342
tp198
a(F409.62985229492188
F343.00494384765625
tp199
a(F480
F344
tp200
a(F590.03033447265625
F343.97784423828125
tp201
a(F846
F342
tp202
a(F46
F343.20504760742188
tp203
a(F269
F345
tp204
a(F469
F343.1732177734375
tp205
a(F486.31915283203125
F344.04641723632812
tp206
a(F686.15509033203125
F343.14016723632812
tp207
a(F916.6737060546875
F345
tp208
a(F240.01950073242188
F345.96194458007812
tp209
a(F484.75
F346
tp210
a(F491.87017822265625
F346
tp211
a(F549.0224609375
F345.960693359375
tp212
a(F145.97064208984375
F347
tp213
a(F439.98052978515625
F345.02224731445312
tp214
a(F666.90399169921875
F345.42926025390625
tp215
a(F775
F346.9835205078125
tp216
a(F133
F347.97705078125
tp217
a(F300.19754028320312
F346.2529296875
tp218
a(F314.609619140625
F348
tp219
a(F340
F346
tp220
a(F419.02139282226562
F347.99517822265625
tp221
a(F243.00390625
F347.00579833984375
tp222
a(F264
F347.00326538085938
tp223
a(F427.02203369140625
F347.02203369140625
tp224
a(F812.38995361328125
F348.45291137695312
tp225
a(F137.07502746582031
F348
tp226
a(F307.01998901367188
F349.98281860351562
tp227
a(F518.33929443359375
F348.62109375
tp228
a(F606.02191162109375
F348.01651000976562
tp229
a(F648
F351
tp230
a(F764
F349
tp231
a(F219.08439636230469
F350.08441162109375
tp232
a(F304.99301147460938
F352
tp233
a(F318.54779052734375
F351.52468872070312
tp234
a(F446
F350
tp235
a(F745
F352
tp236
a(F772.97662353515625
F351.98095703125
tp237
a(F894
F350
tp238
a(F200.66667175292969
F351.29165649414062
tp239
a(F235.68804931640625
F352.4044189453125
tp240
a(F415.93289184570312
F352.4683837890625
tp241
a(F417.7982177734375
F353
tp242
a(F517.059326171875
F352.940673828125
tp243
a(F535.06671142578125
F352.93328857421875
tp244
a(F147.06672668457031
F354
tp245
a(F238
F354
tp246
a(F682.0067138671875
F352.00634765625
tp247
a(F495.03817749023438
F353
tp248
a(F500.9002685546875
F354.9002685546875
tp249
a(F427.98748779296875
F355.98458862304688
tp250
a(F831.00286865234375
F355.99713134765625
tp251
a(F851.1641845703125
F354.62615966796875
tp252
a(F861.9503173828125
F355.98779296875
tp253
a(F199.41639709472656
F355.31570434570312
tp254
a(F664
F357
tp255
a(F772
F357
tp256
a(F775.05157470703125
F356.05157470703125
tp257
a(F890
F355.00909423828125
tp258
a(F594.98663330078125
F356.644287109375
tp259
a(F632.22027587890625
F357.18197631835938
tp260
a(F878.0042724609375
F356.00357055664062
tp261
a(F240.99803161621094
F357.93377685546875
tp262
a(F714
F358.96926879882812
tp263
a(F736.90814208984375
F357.01312255859375
tp264
a(F750.141845703125
F357
tp265
a(F799.62451171875
F358.06961059570312
tp266
a(F323
F360
tp267
a(F769
F360
tp268
a(F850.01300048828125
F359.98516845703125
tp269
a(F891
F360
tp270
a(F424
F359
tp271
a(F474.25
F361
tp272
a(F686.94293212890625
F359
tp273
a(F780.09033203125
F361
tp274
a(F947.0474853515625
F360.9525146484375
tp275
a(F429.06106567382812
F360
tp276
a(F516.98358154296875
F361.96102905273438
tp277
a(F747
F360.234130859375
tp278
a(F815
F360.00692749023438
tp279
a(F211.1185302734375
F361
tp280
a(F361.5333251953125
F361
tp281
a(F438.76736450195312
F361.60958862304688
tp282
a(F445.67453002929688
F361
tp283
a(F481
F361
tp284
a(F702.9935302734375
F361
tp285
a(F754.9539794921875
F363
tp286
a(F832
F361.06185913085938
tp287
a(F893.01025390625
F362.98974609375
tp288
a(F596
F364
tp289
a(F649
F362.109375
tp290
a(F883.9891357421875
F362.01119995117188
tp291
a(F234
F364.79754638671875
tp292
a(F235.02073669433594
F363.020751953125
tp293
a(F512.00531005859375
F364.99932861328125
tp294
a(F580
F363.02587890625
tp295
a(F586
F363.07345581054688
tp296
a(F612.94000244140625
F364.05999755859375
tp297
a(F701.8167724609375
F364.58770751953125
tp298
a(F735.0294189453125
F365
tp299
a(F824
F364.78262329101562
tp300
a(F858.5064697265625
F364.40872192382812
tp301
a(F979.958984375
F365
tp302
a(F222.00315856933594
F365.99676513671875
tp303
a(F418.0291748046875
F364.0291748046875
tp304
a(F545.00146484375
F364.62704467773438
tp305
a(F570
F364
tp306
a(F681
F364
tp307
a(F719.03131103515625
F366
tp308
a(F740
F365.794189453125
tp309
a(F874.97283935546875
F364.0245361328125
tp310
a(F74.975982666015625
F366.93896484375
tp311
a(F858.38519287109375
F365.48538208007812
tp312
a(F255.11517333984375
F367.060546875
tp313
a(F346.14837646484375
F368.29751586914062
tp314
a(F793.90240478515625
F368.88848876953125
tp315
a(F72.761642456054688
F369.19985961914062
tp316
a(F337.91452026367188
F368.09771728515625
tp317
a(F378.01373291015625
F368.0198974609375
tp318
a(F544.99371337890625
F369.03912353515625
tp319
a(F809.34100341796875
F369.63070678710938
tp320
a(F863
F370
tp321
a(F879.02093505859375
F368.026611328125
tp322
a(F883
F368.02035522460938
tp323
a(F194
F370.93975830078125
tp324
a(F693
F370.75
tp325
a(F805.99530029296875
F369.00469970703125
tp326
a(F888.00604248046875
F371
tp327
a(F364.95855712890625
F372
tp328
a(F676.56451416015625
F370
tp329
a(F687
F372
tp330
a(F748.635986328125
F371.62088012695312
tp331
a(F818.3834228515625
F370.62799072265625
tp332
a(F85.988357543945312
F373
tp333
a(F342
F373
tp334
a(F502.33401489257812
F371.8853759765625
tp335
a(F516.98895263671875
F372.99017333984375
tp336
a(F596.93438720703125
F372.33334350585938
tp337
a(F664.9974365234375
F373
tp338
a(F908.9837646484375
F371
tp339
a(F236.95817565917969
F373.95819091796875
tp340
a(F258.79730224609375
F373.79730224609375
tp341
a(F620.01263427734375
F372
tp342
a(F625.06640625
F374
tp343
a(F658.09246826171875
F372.94448852539062
tp344
a(F724.72015380859375
F373.51461791992188
tp345
a(F782
F372.47598266601562
tp346
a(F819
F373.75
tp347
a(F926
F374
tp348
a(F284.16815185546875
F373.578369140625
tp349
a(F501.06137084960938
F375
tp350
a(F518.698974609375
F373.80072021484375
tp351
a(F571.94110107421875
F373.908935546875
tp352
a(F774.61236572265625
F373.38763427734375
tp353
a(F69.006973266601562
F374.05575561523438
tp354
a(F213
F374.050537109375
tp355
a(F240
F375.823974609375
tp356
a(F658.1630859375
F374.89697265625
tp357
a(F729
F374
tp358
a(F792.62017822265625
F374.9083251953125
tp359
a(F795.3050537109375
F375.52603149414062
tp360
a(F217.94987487792969
F376.97021484375
tp361
a(F691.20135498046875
F376.97482299804688
tp362
a(F743
F375.02301025390625
tp363
a(F874.0552978515625
F375.11669921875
tp364
a(F930.96832275390625
F375.03460693359375
tp365
a(F208
F378
tp366
a(F520.10577392578125
F377.89425659179688
tp367
a(F552.95123291015625
F376
tp368
a(F896.14678955078125
F376.22311401367188
tp369
a(F586.125244140625
F378.59280395507812
tp370
a(F604.9259033203125
F377.084716796875
tp371
a(F621.61260986328125
F377.597412109375
tp372
a(F627.2850341796875
F378.17120361328125
tp373
a(F777.08953857421875
F379
tp374
a(F910.79791259765625
F377.23095703125
tp375
a(F413
F379.88848876953125
tp376
a(F513
F379.974609375
tp377
a(F615
F379.9588623046875
tp378
a(F217.88996887207031
F379
tp379
a(F387
F382.97711181640625
tp380
a(F400
F381.00537109375
tp381
a(F403
F382.91549682617188
tp382
a(F415.75473022460938
F382.043212890625
tp383
a(F530.60870361328125
F381.61203002929688
tp384
a(F551.02862548828125
F383
tp385
a(F643.98883056640625
F381.00827026367188
tp386
a(F695
F382.98013305664062
tp387
a(F368.11111450195312
F383.88888549804688
tp388
a(F525
F383.78372192382812
tp389
a(F239.92120361328125
F385
tp390
a(F492
F384.90322875976562
tp391
a(F181
F384.9091796875
tp392
a(F197.04446411132812
F385.96099853515625
tp393
a(F291.63543701171875
F384.31900024414062
tp394
a(F362.1697998046875
F385.8302001953125
tp395
a(F436.0164794921875
F384
tp396
a(F440.99105834960938
F384
tp397
a(F447
F384.07723999023438
tp398
a(F465.0028076171875
F384.0028076171875
tp399
a(F480.72613525390625
F384.72613525390625
tp400
a(F536
F384.03890991210938
tp401
a(F231.07768249511719
F386.07766723632812
tp402
a(F677.93988037109375
F388
tp403
a(F707
F387.90216064453125
tp404
a(F82
F388.851318359375
tp405
a(F240.00157165527344
F387.01101684570312
tp406
a(F691.75
F388.75
tp407
a(F858.59423828125
F387.58538818359375
tp408
a(F537.96685791015625
F389.96847534179688
tp409
a(F540.04791259765625
F388.38336181640625
tp410
a(F467.04354858398438
F389.04354858398438
tp411
a(F208.91357421875
F391.93133544921875
tp412
a(F472.21011352539062
F391.78988647460938
tp413
a(F553.98297119140625
F391.98046875
tp414
a(F597.16595458984375
F390.86538696289062
tp415
a(F608.41851806640625
F391.58151245117188
tp416
a(F664.01361083984375
F390.01126098632812
tp417
a(F81.596092224121094
F391.5330810546875
tp418
a(F273.03524780273438
F391.28201293945312
tp419
a(F397.29739379882812
F393
tp420
a(F572.0032958984375
F393
tp421
a(F580.9190673828125
F392.8927001953125
tp422
a(F89.019683837890625
F394
tp423
a(F241.11698913574219
F393.81185913085938
tp424
a(F459.82958984375
F394.88150024414062
tp425
a(F600
F394.97390747070312
tp426
a(F668.03173828125
F393
tp427
a(F695
F394.94403076171875
tp428
a(F342.97808837890625
F394
tp429
a(F692
F396
tp430
a(F204.98200988769531
F396.9822998046875
tp431
a(F241.05589294433594
F397
tp432
a(F443.96685791015625
F395.96685791015625
tp433
a(F699.0343017578125
F395.0343017578125
tp434
a(F342.28350830078125
F397.07952880859375
tp435
a(F377.85992431640625
F396
tp436
a(F403.9498291015625
F397.9498291015625
tp437
a(F441.0601806640625
F396
tp438
a(F459.06161499023438
F397.08193969726562
tp439
a(F738.046142578125
F397.953857421875
tp440
a(F907.9957275390625
F398
tp441
a(F267
F397.02096557617188
tp442
a(F358
F398.72268676757812
tp443
a(F390.03182983398438
F397.25457763671875
tp444
a(F408.25
F399
tp445
a(F635
F398.972900390625
tp446
a(F636.10498046875
F397
tp447
a(F640.0177001953125
F398.01376342773438
tp448
a(F63.973651885986328
F398
tp449
a(F339.94033813476562
F399.94033813476562
tp450
a(F366
F398.17959594726562
tp451
a(F448.58538818359375
F398.70724487304688
tp452
a(F631.0771484375
F398.0771484375
tp453
a(F221.05113220214844
F399.04473876953125
tp454
a(F274.92953491210938
F399
tp455
a(F348
F400.96072387695312
tp456
a(F442
F400.99838256835938
tp457
a(F577.6221923828125
F400.56820678710938
tp458
a(F581
F399
tp459
a(F878.67578125
F400.58819580078125
tp460
a(F905.9554443359375
F399
tp461
a(F45
F400
tp462
a(F50.919082641601562
F401.94134521484375
tp463
a(F84.229316711425781
F401.77069091796875
tp464
a(F608.84051513671875
F400
tp465
a(F857.01629638671875
F402
tp466
a(F907.95367431640625
F400.05291748046875
tp467
a(F187.96148681640625
F401
tp468
a(F795
F402.93685913085938
tp469
a(F855.9022216796875
F403
tp470
a(F897
F403
tp471
a(F737.010009765625
F402
tp472
a(F808
F403.28463745117188
tp473
a(F875.3262939453125
F403.32626342773438
tp474
a(F252
F406
tp475
a(F517.88037109375
F406
tp476
a(F519.07904052734375
F405.92092895507812
tp477
a(F657.9246826171875
F406
tp478
a(F820.9989013671875
F404
tp479
a(F828
F404.00900268554688
tp480
a(F837
F406
tp481
a(F842
F406
tp482
a(F59.930622100830078
F405.04522705078125
tp483
a(F222.82868957519531
F405.14990234375
tp484
a(F334.8365478515625
F405
tp485
a(F628
F405
tp486
a(F821
F406.9949951171875
tp487
a(F228
F408
tp488
a(F505.67233276367188
F406.97299194335938
tp489
a(F665.860107421875
F407.25509643554688
tp490
a(F693.99615478515625
F407.9937744140625
tp491
a(F794.03582763671875
F408
tp492
a(F797.83587646484375
F407.88351440429688
tp493
a(F868
F408
tp494
a(F491
F408.90316772460938
tp495
a(F513.99127197265625
F409
tp496
a(F516.01812744140625
F409
tp497
a(F585.39141845703125
F408.52041625976562
tp498
a(F45.369915008544922
F409.14089965820312
tp499
a(F178
F409.75
tp500
a(F185.78048706054688
F408
tp501
a(F450.12039184570312
F408.12039184570312
tp502
a(F494.9517822265625
F409.0771484375
tp503
a(F506.955322265625
F409.24368286132812
tp504
a(F827.98858642578125
F408.01437377929688
tp505
a(F841
F408.091552734375
tp506
a(F911.07122802734375
F408
tp507
a(F35.397048950195312
F411
tp508
a(F270.79620361328125
F410.79620361328125
tp509
a(F568.99072265625
F409.01202392578125
tp510
a(F726.98162841796875
F410.98165893554688
tp511
a(F742
F409
tp512
a(F68.021530151367188
F411.97845458984375
tp513
a(F204.97175598144531
F412
tp514
a(F207.01385498046875
F412
tp515
a(F381.02023315429688
F410.16180419921875
tp516
a(F463
F410
tp517
a(F538.99664306640625
F411.99600219726562
tp518
a(F711.01629638671875
F412
tp519
a(F721.8883056640625
F412
tp520
a(F734.1209716796875
F411.50701904296875
tp521
a(F27.507030487060547
F411.93246459960938
tp522
a(F31
F412.990478515625
tp523
a(F409.20254516601562
F412.00039672851562
tp524
a(F568
F413
tp525
a(F399.02593994140625
F414
tp526
a(F23.009075164794922
F413.00851440429688
tp527
a(F744
F415
tp528
a(F578.03424072265625
F414.03060913085938
tp529
a(F646.98870849609375
F415.9896240234375
tp530
a(F953.82220458984375
F414.987060546875
tp531
a(F374
F417
tp532
a(F384
F416.97607421875
tp533
a(F56.027416229248047
F417.95648193359375
tp534
a(F936
F416.06320190429688
tp535
a(F332.12240600585938
F417.53622436523438
tp536
a(F357.00222778320312
F417
tp537
a(F599.078857421875
F418.88595581054688
tp538
a(F82.253822326660156
F421.7125244140625
tp539
a(F252.69532775878906
F423
tp540
a(F953
F423
tp541
a(F190.51124572753906
F422.51126098632812
tp542
a(F274
F423
tp543
a(F325.91397094726562
F424.91397094726562
tp544
a(F49.312992095947266
F424.31298828125
tp545
a(F457
F426
tp546
a(F189.05079650878906
F425.05081176757812
tp547
a(F739
F427.9951171875
tp548
a(F81.020927429199219
F429
tp549
a(F154
F427
tp550
a(F929
F429
tp551
a(F148
F428
tp552
a(F189.02066040039062
F430
tp553
a(F195
F430
tp554
a(F444
F428.67568969726562
tp555
a(F136.99044799804688
F430.98910522460938
tp556
a(F141
F429
tp557
a(F133.60000610351562
F432
tp558
a(F154.86978149414062
F430.87887573242188
tp559
a(F326.03085327148438
F430.02932739257812
tp560
a(F445.49072265625
F432
tp561
a(F894.4080810546875
F430.4080810546875
tp562
a(F732.05816650390625
F432.15914916992188
tp563
a(F28.037675857543945
F432
tp564
a(F134.56724548339844
F433.27108764648438
tp565
a(F139.06869506835938
F434
tp566
a(F293
F433.86947631835938
tp567
a(F276
F435
tp568
a(F328.582763671875
F434
tp569
a(F397
F435.04364013671875
tp570
a(F78.666938781738281
F436.47183227539062
tp571
a(F275.25531005859375
F438
tp572
a(F327
F437.78189086914062
tp573
a(F310.47869873046875
F437.88775634765625
tp574
a(F40
F439.75
tp575
a(F47
F439.75
tp576
a(F330.98593139648438
F438
tp577
a(F32.961330413818359
F439.9267578125
tp578
a(F280.05279541015625
F442
tp579
a(F308
F442.97772216796875
tp580
a(F329
F442.75
tp581
a(F892
F441.1019287109375
tp582
a(F183.06315612792969
F442.50527954101562
tp583
a(F252.79920959472656
F443.36758422851562
tp584
a(F297.9298095703125
F443.9298095703125
tp585
a(F919
F442
tp586
a(F966.68609619140625
F443.34585571289062
tp587
a(F188.1805419921875
F444
tp588
a(F307
F444.03131103515625
tp589
a(F279
F445.14263916015625
tp590
a(F296.54833984375
F447
tp591
a(F731.99298095703125
F445.00698852539062
tp592
a(F42
F447
tp593
a(F734
F449.96578979492188
tp594
a(F806.660888671875
F450
tp595
a(F788.031005859375
F451.968994140625
tp596
a(F33.974609375
F452.03567504882812
tp597
a(F792.9669189453125
F453.96600341796875
tp598
a(F795.8028564453125
F455.99221801757812
tp599
a(F818
F455.00518798828125
tp600
a(F888
F457
tp601
a(F143.90228271484375
F456.90371704101562
tp602
a(F814
F459.96847534179688
tp603
a(F911.97662353515625
F469
tp604
a(F913.0482177734375
F467.04818725585938
tp605
a(F919.01202392578125
F475.98800659179688
tp606
a(F896.804931640625
F479.80496215820312
tp607
a(F918.15911865234375
F481
tp608
a(F933.32501220703125
F485.76690673828125
tp609
a(F207
F496.81573486328125
tp610
a(F560.00750732421875
F505.99295043945312
tp611
a(F540.00140380859375
F507
tp612
a(F627
F681
tp613
a(F758.9815673828125
F690.02117919921875
tp614
a(F421.02288818359375
F705
tp615
a(F233.98194885253906
F730.0157470703125
tp616
a(F120.5
F322.5
tp617
a(F361.7451171875
F319.75747680664062
tp618
a(F451.811279296875
F321.2882080078125
tp619
a(F290.19766235351562
F327.20025634765625
tp620
a(F499
F325
tp621
a(F762.45220947265625
F333.18258666992188
tp622
a(F750.41131591796875
F339.80535888671875
tp623
a(F258.25
F343.75
tp624
a(F445.72540283203125
F345.2418212890625
tp625
a(F243.50914001464844
F346.41156005859375
tp626
a(F68.614463806152344
F364.02676391601562
tp627
a(F544.7197265625
F367.31039428710938
tp628
a(F88.729484558105469
F392.03900146484375
tp629
a(F879
F402
tp630
a(F378.1658935546875
F417.1658935546875
tp631
a(F175
F420
tp632
a(F192.44979858398438
F424.4266357421875
tp633
a(F491.98614501953125
F425.01385498046875
tp634
a(F207.22642517089844
F429.23388671875
tp635
a(F38.095157623291016
F439.1300048828125
tp636
a(F102.02765655517578
F304.2447509765625
tp637
a(F115.53144836425781
F317.46853637695312
tp638
a(F75.714073181152344
F321.71408081054688
tp639
a(F298.04922485351562
F326.95379638671875
tp640
a(F403.601318359375
F324.61233520507812
tp641
a(F569.65966796875
F328.5
tp642
a(F648.75
F324.75
tp643
a(F646.38385009765625
F331.57098388671875
tp644
a(F574.90374755859375
F341.24688720703125
tp645
a(F846.0364990234375
F344.2723388671875
tp646
a(F600.5
F348.027587890625
tp647
a(F841.5
F353.5
tp648
a(F202.5
F356.5
tp649
a(F542.5
F359.69247436523438
tp650
a(F822.5
F372.5
tp651
a(F697.0438232421875
F392.57638549804688
tp652
a(F190.5
F401.42742919921875
tp653
a(F894.53082275390625
F402.96249389648438
tp654
a(F135.32521057128906
F432.63470458984375
tp655
a(F332.25
F432.75
tp656
a(F900.5
F476.5
tp657
a(F706
F165.92509460449219
tp658
a(F237.67219543457031
F319.46701049804688
tp659
a(F276.6654052734375
F324.6654052734375
tp660
a(F757.02911376953125
F324.91268920898438
tp661
a(F501.95880126953125
F327.946044921875
tp662
a(F581.824951171875
F328.23992919921875
tp663
a(F606.2996826171875
F328.21310424804688
tp664
a(F442
F344.70941162109375
tp665
a(F857.5
F400
tp666
a(F184.07569885253906
F403.83270263671875
tp667
a(F76.842544555664062
F436.8165283203125
tp668
a(F291.66229248046875
F438.34320068359375
tp669
a(F256.00259399414062
F436
tp670
a(F291.9923095703125
F438.00418090820312
tp671
a(F494.5
F325.5
tp672
a(F427.14178466796875
F343.85821533203125
tp673
a(F425.4586181640625
F350.42364501953125
tp674
a(F781.5
F377.5
tp675
a(F224.5
F374.5
tp676
a(F860.5
F380.5
tp677
a(F884.5
F380.5
tp678
a(F428.5
F410.5
tp679
a(F265.45001220703125
F441.88458251953125
tp680
a.