(lp1
(F337.99542236328125
F322.9959716796875
tp2
a(F581.804931640625
F325.12655639648438
tp3
a(F579
F327
tp4
a(F336.3770751953125
F327.881591796875
tp5
a(F953.00213623046875
F330.00027465820312
tp6
a(F971
F331.95394897460938
tp7
a(F926.78515625
F332.54052734375
tp8
a(F945
F331
tp9
a(F930.03057861328125
F332.24456787109375
tp10
a(F905.74053955078125
F334.74053955078125
tp11
a(F947.9490966796875
F335
tp12
a(F843.9781494140625
F335.9801025390625
tp13
a(F331.8585205078125
F336
tp14
a(F344.145751953125
F337.854248046875
tp15
a(F872.17864990234375
F340
tp16
a(F799.0093994140625
F342.12002563476562
tp17
a(F793.3421630859375
F343.08526611328125
tp18
a(F754.64697265625
F344.942138671875
tp19
a(F747
F346.89556884765625
tp20
a(F793
F347.1866455078125
tp21
a(F802
F349
tp22
a(F842.89227294921875
F347.10772705078125
tp23
a(F916.9478759765625
F349
tp24
a(F808.95831298828125
F349.13784790039062
tp25
a(F896.9715576171875
F348.76025390625
tp26
a(F115.225341796875
F351
tp27
a(F182
F351
tp28
a(F825.01409912109375
F352
tp29
a(F834.25
F352
tp30
a(F837.91461181640625
F352
tp31
a(F743
F352.75
tp32
a(F862.4271240234375
F351.37371826171875
tp33
a(F697.87744140625
F352.14004516601562
tp34
a(F705
F353.84536743164062
tp35
a(F208.99525451660156
F355
tp36
a(F917
F355
tp37
a(F169.99375915527344
F354.00881958007812
tp38
a(F241.00502014160156
F355.00503540039062
tp39
a(F820.95611572265625
F354.04385375976562
tp40
a(F825
F354
tp41
a(F896.0697021484375
F355.99127197265625
tp42
a(F196.94465637207031
F357
tp43
a(F201.02812194824219
F355
tp44
a(F214
F357
tp45
a(F220.62347412109375
F355.777099609375
tp46
a(F394.77462768554688
F355.83285522460938
tp47
a(F722
F355.47882080078125
tp48
a(F813.031982421875
F355.2557373046875
tp49
a(F695.18975830078125
F357.3372802734375
tp50
a(F718.031494140625
F357.90380859375
tp51
a(F906.898681640625
F358
tp52
a(F22.050161361694336
F357
tp53
a(F201.0242919921875
F359
tp54
a(F259.9359130859375
F358.48736572265625
tp55
a(F324.95166015625
F357.89779663085938
tp56
a(F374
F358.86306762695312
tp57
a(F685.03515625
F358.966064453125
tp58
a(F280
F360
tp59
a(F327
F358.02182006835938
tp60
a(F353.07412719726562
F358
tp61
a(F370.95162963867188
F360
tp62
a(F385
F358
tp63
a(F895.03515625
F359.999267578125
tp64
a(F95
F360.97103881835938
tp65
a(F214.91569519042969
F361
tp66
a(F284
F361
tp67
a(F291.12896728515625
F359.12896728515625
tp68
a(F311.18499755859375
F360.81500244140625
tp69
a(F736.96868896484375
F360.9759521484375
tp70
a(F77.164085388183594
F360
tp71
a(F88.965736389160156
F361.96084594726562
tp72
a(F262.193359375
F361.830810546875
tp73
a(F322.90301513671875
F360.678955078125
tp74
a(F682.93194580078125
F361.45547485351562
tp75
a(F73.972068786621094
F364
tp76
a(F231.20523071289062
F363.2086181640625
tp77
a(F308.88369750976562
F364
tp78
a(F686.03558349609375
F364.96884155273438
tp79
a(F895.3160400390625
F363.76040649414062
tp80
a(F22
F366
tp81
a(F329.863525390625
F364
tp82
a(F871
F364
tp83
a(F63.341224670410156
F366.2373046875
tp84
a(F907.99163818359375
F368
tp85
a(F25.343864440917969
F369
tp86
a(F35.5625
F369
tp87
a(F662.17059326171875
F368.0601806640625
tp88
a(F738
F369
tp89
a(F807.48291015625
F368.48291015625
tp90
a(F750.0238037109375
F370
tp91
a(F880
F368.09991455078125
tp92
a(F412.026123046875
F369.026123046875
tp93
a(F34.990127563476562
F371.99014282226562
tp94
a(F734
F370
tp95
a(F714.9896240234375
F371.01199340820312
tp96
a(F705.07427978515625
F373.92575073242188
tp97
a(F750.01397705078125
F372.1119384765625
tp98
a(F764.736083984375
F373.39291381835938
tp99
a(F898.9810791015625
F372
tp100
a(F925.98931884765625
F374
tp101
a(F23.647184371948242
F375
tp102
a(F32.445545196533203
F375
tp103
a(F49.955703735351562
F373.04458618164062
tp104
a(F660.8123779296875
F373.54638671875
tp105
a(F180.33111572265625
F374.96243286132812
tp106
a(F194.81425476074219
F375.81427001953125
tp107
a(F728.970458984375
F374.02828979492188
tp108
a(F745.2318115234375
F376
tp109
a(F414
F375
tp110
a(F779.04925537109375
F375.04574584960938
tp111
a(F371
F378
tp112
a(F27
F379.51010131835938
tp113
a(F78.998313903808594
F378.00070190429688
tp114
a(F199.28695678710938
F379.96414184570312
tp115
a(F470.57077026367188
F379.2039794921875
tp116
a(F707
F379.95620727539062
tp117
a(F932.04833984375
F378.79705810546875
tp118
a(F141.94194030761719
F380.94192504882812
tp119
a(F263.9486083984375
F381
tp120
a(F410
F379
tp121
a(F432
F379
tp122
a(F468
F381
tp123
a(F214.13482666015625
F382
tp124
a(F229
F382
tp125
a(F428.74935913085938
F381.3743896484375
tp126
a(F905.5416259765625
F381.01864624023438
tp127
a(F439.9945068359375
F381.00079345703125
tp128
a(F475
F381.07925415039062
tp129
a(F523
F382.75115966796875
tp130
a(F527.97784423828125
F381.01953125
tp131
a(F715
F381
tp132
a(F721
F381.03314208984375
tp133
a(F733.62554931640625
F382.92181396484375
tp134
a(F894.2174072265625
F383
tp135
a(F934
F383
tp136
a(F57.25
F384
tp137
a(F447.62228393554688
F384
tp138
a(F461
F383.3193359375
tp139
a(F724.15625
F383.84375
tp140
a(F153.04507446289062
F385
tp141
a(F457.02658081054688
F384.97247314453125
tp142
a(F506.94387817382812
F385
tp143
a(F588.0042724609375
F385
tp144
a(F943
F383.01669311523438
tp145
a(F963
F383
tp146
a(F483.95989990234375
F385.95989990234375
tp147
a(F511.94296264648438
F385.065185546875
tp148
a(F515.94696044921875
F385.06069946289062
tp149
a(F519
F385.048828125
tp150
a(F830.1885986328125
F386.91860961914062
tp151
a(F142.91667175292969
F388
tp152
a(F94
F387
tp153
a(F102.41483306884766
F388.94073486328125
tp154
a(F310.23468017578125
F388.76531982421875
tp155
a(F475.42239379882812
F387.42239379882812
tp156
a(F584.62030029296875
F387.41336059570312
tp157
a(F351.02066040039062
F389.97781372070312
tp158
a(F447
F390
tp159
a(F790
F388.20242309570312
tp160
a(F111.90949249267578
F389.11325073242188
tp161
a(F229.01187133789062
F390.98574829101562
tp162
a(F61.963565826416016
F390.02120971679688
tp163
a(F107.66594696044922
F390.29229736328125
tp164
a(F731
F390.0286865234375
tp165
a(F179.89126586914062
F393
tp166
a(F541
F393
tp167
a(F724
F391.46920776367188
tp168
a(F958.96978759765625
F393
tp169
a(F525
F392.05401611328125
tp170
a(F927.0013427734375
F392.01065063476562
tp171
a(F960.0020751953125
F393.99789428710938
tp172
a(F24.108516693115234
F394.13186645507812
tp173
a(F54.965473175048828
F395
tp174
a(F85.984481811523438
F394.98641967773438
tp175
a(F121.89755249023438
F394.94149780273438
tp176
a(F378.013671875
F393.0137939453125
tp177
a(F468
F393
tp178
a(F575.06878662109375
F394.99139404296875
tp179
a(F650
F394.75
tp180
a(F742.53466796875
F394.401611328125
tp181
a(F79.999626159667969
F396
tp182
a(F517.98577880859375
F394
tp183
a(F697.9285888671875
F395.4342041015625
tp184
a(F732.8126220703125
F396
tp185
a(F903.99700927734375
F395.99697875976562
tp186
a(F924.0369873046875
F394
tp187
a(F476.97714233398438
F397
tp188
a(F503.41531372070312
F396.58572387695312
tp189
a(F97.988967895507812
F397.04644775390625
tp190
a(F193.95480346679688
F397.96243286132812
tp191
a(F230.96757507324219
F396.72329711914062
tp192
a(F344.01641845703125
F397.9840087890625
tp193
a(F414
F396
tp194
a(F675.00408935546875
F396
tp195
a(F809.95806884765625
F396.04190063476562
tp196
a(F79.288780212402344
F397.91036987304688
tp197
a(F83
F399
tp198
a(F86.964195251464844
F397.04360961914062
tp199
a(F615.14007568359375
F398.1094970703125
tp200
a(F636.0235595703125
F398.9764404296875
tp201
a(F761
F399
tp202
a(F794
F397
tp203
a(F914.018310546875
F397.01708984375
tp204
a(F710
F398
tp205
a(F720
F400
tp206
a(F430
F400.97113037109375
tp207
a(F456.04986572265625
F400.95635986328125
tp208
a(F695.04107666015625
F399.04104614257812
tp209
a(F841.90606689453125
F400.12884521484375
tp210
a(F311.00338745117188
F401.99627685546875
tp211
a(F386.98867797851562
F400.0067138671875
tp212
a(F742
F402
tp213
a(F747.05865478515625
F402
tp214
a(F834
F402
tp215
a(F39
F402.84616088867188
tp216
a(F379.9298095703125
F401.08023071289062
tp217
a(F412.67953491210938
F401.96142578125
tp218
a(F732.0809326171875
F403
tp219
a(F306
F402
tp220
a(F406.75363159179688
F403.84420776367188
tp221
a(F472
F402.09490966796875
tp222
a(F120
F403
tp223
a(F126.02729797363281
F403.01531982421875
tp224
a(F139.67042541503906
F405
tp225
a(F367
F403.31793212890625
tp226
a(F412.5611572265625
F404.46633911132812
tp227
a(F474
F403.02383422851562
tp228
a(F817.75
F403
tp229
a(F111.85952758789062
F404.14047241210938
tp230
a(F241
F405.92431640625
tp231
a(F261
F405.92291259765625
tp232
a(F266.39080810546875
F405.1671142578125
tp233
a(F573.9541015625
F406
tp234
a(F66
F405.00921630859375
tp235
a(F68.036705017089844
F406.96328735351562
tp236
a(F413.95526123046875
F407.95526123046875
tp237
a(F154.75
F408
tp238
a(F39
F411
tp239
a(F171.29714965820312
F410.70285034179688
tp240
a(F313.97576904296875
F409
tp241
a(F317
F411
tp242
a(F375.46929931640625
F411
tp243
a(F42.918361663818359
F411.91836547851562
tp244
a(F665.9678955078125
F410.03207397460938
tp245
a(F121.18025970458984
F411
tp246
a(F335
F413.72784423828125
tp247
a(F507.984375
F413.984375
tp248
a(F166
F415
tp249
a(F174.00685119628906
F413.05477905273438
tp250
a(F178
F415
tp251
a(F244
F414.98248291015625
tp252
a(F271.04986572265625
F415
tp253
a(F369.060546875
F413.06918334960938
tp254
a(F450.00225830078125
F413.00225830078125
tp255
a(F558.007568359375
F415
tp256
a(F154.81114196777344
F415.11569213867188
tp257
a(F171
F416
tp258
a(F278
F415.9591064453125
tp259
a(F363.92819213867188
F415.92819213867188
tp260
a(F549
F415.96368408203125
tp261
a(F209
F417
tp262
a(F248
F415
tp263
a(F251.93302917480469
F415
tp264
a(F522
F415
tp265
a(F233.02484130859375
F417.02484130859375
tp266
a(F280.24905395507812
F417
tp267
a(F316.97052001953125
F418.97052001953125
tp268
a(F382.97763061523438
F418.00888061523438
tp269
a(F457
F417
tp270
a(F432
F419.01666259765625
tp271
a(F948.01220703125
F420.99099731445312
tp272
a(F103
F421.9510498046875
tp273
a(F955.9854736328125
F420
tp274
a(F406.15231323242188
F423
tp275
a(F373
F422.07144165039062
tp276
a(F142
F423
tp277
a(F314
F425
tp278
a(F426
F424.75
tp279
a(F103
F426
tp280
a(F356.606201171875
F424.393798828125
tp281
a(F370
F425.109375
tp282
a(F311.78460693359375
F429
tp283
a(F975.406982421875
F428.339599609375
tp284
a(F282.18533325195312
F431
tp285
a(F302.64031982421875
F430.64031982421875
tp286
a(F345.60791015625
F430.60791015625
tp287
a(F360.82196044921875
F430.23486328125
tp288
a(F316.6807861328125
F432
tp289
a(F721
F433.99569702148438
tp290
a(F39
F435
tp291
a(F124.34514617919922
F436.998046875
tp292
a(F29.008810043334961
F438.99118041992188
tp293
a(F39
F438.94989013671875
tp294
a(F59
F437.01773071289062
tp295
a(F158
F440
tp296
a(F273
F439.91567993164062
tp297
a(F636.01885986328125
F438.01535034179688
tp298
a(F65
F440
tp299
a(F73
F442
tp300
a(F83.009109497070312
F442
tp301
a(F87.25
F442
tp302
a(F135.00672912597656
F441.99508666992188
tp303
a(F236
F442.954345703125
tp304
a(F727.20953369140625
F442.97381591796875
tp305
a(F925
F441
tp306
a(F38
F442.10687255859375
tp307
a(F646
F442.279296875
tp308
a(F101.75471496582031
F443
tp309
a(F105.13310241699219
F443.152099609375
tp310
a(F72.985221862792969
F444.01751708984375
tp311
a(F84.99951171875
F444.00210571289062
tp312
a(F89
F445.96649169921875
tp313
a(F259
F445.75
tp314
a(F69
F445
tp315
a(F863.01092529296875
F448
tp316
a(F886.99365234375
F447.99435424804688
tp317
a(F893
F448
tp318
a(F145.38673400878906
F447.926513671875
tp319
a(F681.01080322265625
F449
tp320
a(F700.9866943359375
F448.99282836914062
tp321
a(F760.00079345703125
F448.99649047851562
tp322
a(F850.76397705078125
F450
tp323
a(F198
F452
tp324
a(F566
F452.05975341796875
tp325
a(F163.07310485839844
F454.9268798828125
tp326
a(F758.97833251953125
F457
tp327
a(F413
F456
tp328
a(F557
F456
tp329
a(F198
F457.18130493164062
tp330
a(F316.888916015625
F459.7889404296875
tp331
a(F417.98434448242188
F461.01272583007812
tp332
a(F139.51736450195312
F463.0865478515625
tp333
a(F243.86274719238281
F462
tp334
a(F270.70382690429688
F463.96298217773438
tp335
a(F340.34829711914062
F465
tp336
a(F261.6126708984375
F467.88009643554688
tp337
a(F260
F471
tp338
a(F293.03631591796875
F472.03631591796875
tp339
a(F243.10220336914062
F473.1168212890625
tp340
a(F246.78152465820312
F475.97268676757812
tp341
a(F349
F475.9781494140625
tp342
a(F169
F477.05130004882812
tp343
a(F214
F479
tp344
a(F137
F478
tp345
a(F165.11361694335938
F478.985107421875
tp346
a(F208
F479.99093627929688
tp347
a(F302.0247802734375
F479.0247802734375
tp348
a(F340
F479.025390625
tp349
a(F316
F481.99569702148438
tp350
a(F327.39776611328125
F481.01788330078125
tp351
a(F301
F483
tp352
a(F31.360370635986328
F489.06033325195312
tp353
a(F71
F490.99520874023438
tp354
a(F35
F492
tp355
a(F352.29949951171875
F491.87490844726562
tp356
a(F38.838459014892578
F494.83847045898438
tp357
a(F129.65481567382812
F495
tp358
a(F330.91546630859375
F497.91546630859375
tp359
a(F274.9364013671875
F497
tp360
a(F279
F499.9254150390625
tp361
a(F280
F499.94500732421875
tp362
a(F312.0372314453125
F499.9627685546875
tp363
a(F284.47369384765625
F499
tp364
a(F330.48541259765625
F501.52984619140625
tp365
a(F356.95138549804688
F502.94827270507812
tp366
a(F155.94075012207031
F504
tp367
a(F257
F505.98178100585938
tp368
a(F270.08642578125
F506
tp369
a(F283
F505.97836303710938
tp370
a(F791.0882568359375
F505.91177368164062
tp371
a(F160.89283752441406
F508
tp372
a(F296
F506.08963012695312
tp373
a(F289
F510
tp374
a(F616
F509.96597290039062
tp375
a(F253
F511.75
tp376
a(F166
F513
tp377
a(F285.024658203125
F511
tp378
a(F179.00836181640625
F513.00732421875
tp379
a(F297.01962280273438
F513.02117919921875
tp380
a(F300.97161865234375
F515
tp381
a(F139
F514.53265380859375
tp382
a(F162.0294189453125
F517
tp383
a(F148.997802734375
F516
tp384
a(F274
F517
tp385
a(F149.9093017578125
F520
tp386
a(F165.90542602539062
F520
tp387
a(F176.20379638671875
F520.17462158203125
tp388
a(F158.848876953125
F523
tp389
a(F511.96319580078125
F524.96319580078125
tp390
a(F531.05926513671875
F527
tp391
a(F609.71514892578125
F526.28485107421875
tp392
a(F611.00714111328125
F527.9833984375
tp393
a(F885.01593017578125
F531.0086669921875
tp394
a(F283.98855590820312
F535.98663330078125
tp395
a(F160
F544.9901123046875
tp396
a(F759.1019287109375
F667.16033935546875
tp397
a(F168.01980590820312
F669.0196533203125
tp398
a(F97.716392517089844
F675.03106689453125
tp399
a(F638
F688.0174560546875
tp400
a(F442.75
F693
tp401
a(F617
F699
tp402
a(F744.06744384765625
F709.988037109375
tp403
a(F29.985969543457031
F727.98876953125
tp404
a(F698
F729
tp405
a(F331.75
F339.2069091796875
tp406
a(F757.59747314453125
F350.54110717773438
tp407
a(F403
F375
tp408
a(F82.422332763671875
F378.764892578125
tp409
a(F472.75
F379
tp410
a(F53.719463348388672
F404.33343505859375
tp411
a(F499.86672973632812
F420.13327026367188
tp412
a(F305.53793334960938
F428.40048217773438
tp413
a(F322.5
F433.75
tp414
a(F225.25
F462.25
tp415
a(F141.25
F460.96905517578125
tp416
a(F298.915771484375
F482.11172485351562
tp417
a(F349.78469848632812
F490.77545166015625
tp418
a(F252.17634582519531
F513.17633056640625
tp419
a(F745.65435791015625
F347.34170532226562
tp420
a(F209.50605773925781
F352.5
tp421
a(F218.03367614746094
F359.93063354492188
tp422
a(F408.75
F368.25
tp423
a(F750.5
F370.5
tp424
a(F781.94134521484375
F377.94137573242188
tp425
a(F281.25
F380.25
tp426
a(F469.2432861328125
F376.5
tp427
a(F522.702880859375
F383.01644897460938
tp428
a(F723.75
F386.25
tp429
a(F839.57843017578125
F384.61520385742188
tp430
a(F89.365615844726562
F389.3656005859375
tp431
a(F711.6719970703125
F398.21795654296875
tp432
a(F132.5
F404.5
tp433
a(F635.98681640625
F401.702880859375
tp434
a(F266.49798583984375
F402.51412963867188
tp435
a(F67.447486877441406
F441.49929809570312
tp436
a(F203.42506408691406
F466.26998901367188
tp437
a(F530.3653564453125
F530.3653564453125
tp438
a(F934.5
F384.5
tp439
a(F803.7762451171875
F397
tp440
a(F124
F403
tp441
a(F202.00466918945312
F409.005615234375
tp442
a(F376.45819091796875
F424.45819091796875
tp443
a(F84.181816101074219
F438.18182373046875
tp444
a(F71.47161865234375
F440.52838134765625
tp445
a(F282.25555419921875
F488.0166015625
tp446
a(F326.88668823242188
F354.35476684570312
tp447
a(F705.5
F379.79977416992188
tp448
a(F812.1787109375
F391.66708374023438
tp449
a(F833.5
F401.5
tp450
a(F593.88372802734375
F401.86572265625
tp451
a(F107.10527038574219
F437.48294067382812
tp452
a(F206.53842163085938
F515.03692626953125
tp453
a(F326.5
F332.5
tp454
a(F132.82101440429688
F430.08135986328125
tp455
a.