(lp1
(F409
F178.92601013183594
tp2
a(F394
F188
tp3
a(F410.29638671875
F197.29638671875
tp4
a(F393.93719482421875
F200
tp5
a(F391.122314453125
F200.70024108886719
tp6
a(F752.1524658203125
F302.20379638671875
tp7
a(F750.43780517578125
F308.56222534179688
tp8
a(F760.11029052734375
F317.88970947265625
tp9
a(F747
F319
tp10
a(F159.7213134765625
F330.15664672851562
tp11
a(F164.96662902832031
F330.03338623046875
tp12
a(F50.154464721679688
F332.0992431640625
tp13
a(F571.98419189453125
F331
tp14
a(F115
F332.13748168945312
tp15
a(F147
F335
tp16
a(F165
F334.9822998046875
tp17
a(F22
F334.08004760742188
tp18
a(F39.202899932861328
F335.17388916015625
tp19
a(F54.660987854003906
F335.015625
tp20
a(F136.95419311523438
F334.36648559570312
tp21
a(F142
F334
tp22
a(F180.14506530761719
F335.054443359375
tp23
a(F537.01373291015625
F334
tp24
a(F813.29547119140625
F335.27420043945312
tp25
a(F145.45347595214844
F336.3363037109375
tp26
a(F376.10858154296875
F335.10858154296875
tp27
a(F649.1143798828125
F335.11441040039062
tp28
a(F42.625080108642578
F337.28466796875
tp29
a(F69.717575073242188
F336.25314331054688
tp30
a(F85
F337.98748779296875
tp31
a(F165.96037292480469
F337.96038818359375
tp32
a(F189.23434448242188
F336.68917846679688
tp33
a(F624.00384521484375
F336.00347900390625
tp34
a(F646.9683837890625
F337.96835327148438
tp35
a(F21
F338.88424682617188
tp36
a(F63.037727355957031
F337.04312133789062
tp37
a(F72.684272766113281
F338.64007568359375
tp38
a(F178.91937255859375
F337
tp39
a(F229.01156616210938
F338.99057006835938
tp40
a(F244.29423522949219
F337
tp41
a(F373.01889038085938
F337.01889038085938
tp42
a(F601.143310546875
F337.9610595703125
tp43
a(F643.8597412109375
F337
tp44
a(F654.09326171875
F337.74627685546875
tp45
a(F789.087890625
F338.912109375
tp46
a(F57.093471527099609
F338.09347534179688
tp47
a(F77
F340
tp48
a(F186.13150024414062
F339.0225830078125
tp49
a(F398.0667724609375
F339.9332275390625
tp50
a(F618.16259765625
F339.83740234375
tp51
a(F639
F338.41387939453125
tp52
a(F740.97479248046875
F338.7470703125
tp53
a(F788
F339.95339965820312
tp54
a(F804
F338
tp55
a(F192
F339
tp56
a(F223
F339.03402709960938
tp57
a(F316
F339
tp58
a(F367.04226684570312
F341
tp59
a(F375.68551635742188
F339.3218994140625
tp60
a(F676
F339.00772094726562
tp61
a(F730.5078125
F339.55450439453125
tp62
a(F743.1407470703125
F341
tp63
a(F769.1207275390625
F341
tp64
a(F172.250732421875
F340.51150512695312
tp65
a(F175.35877990722656
F342
tp66
a(F218.9166259765625
F340.07492065429688
tp67
a(F231.27774047851562
F340
tp68
a(F297.99566650390625
F340.00738525390625
tp69
a(F325.5767822265625
F341.36611938476562
tp70
a(F439
F341.74386596679688
tp71
a(F530.83642578125
F341.89141845703125
tp72
a(F766.3521728515625
F341.02484130859375
tp73
a(F222.14971923828125
F342.25448608398438
tp74
a(F294.818603515625
F343
tp75
a(F363.88650512695312
F343
tp76
a(F445.97225952148438
F341
tp77
a(F632.95556640625
F341
tp78
a(F700.199951171875
F343
tp79
a(F269.88336181640625
F344
tp80
a(F272
F343.60333251953125
tp81
a(F348.2001953125
F343.7998046875
tp82
a(F383.97866821289062
F342.01864624023438
tp83
a(F430.49285888671875
F343.93838500976562
tp84
a(F631.5572509765625
F342.57037353515625
tp85
a(F678.1455078125
F344
tp86
a(F51.445545196533203
F344.554443359375
tp87
a(F199.45210266113281
F343
tp88
a(F234.25
F345
tp89
a(F241
F343.09207153320312
tp90
a(F289.65939331054688
F344.2972412109375
tp91
a(F828.68212890625
F344.66836547851562
tp92
a(F254.01383972167969
F344
tp93
a(F283.3343505859375
F344.31393432617188
tp94
a(F564.017822265625
F344.14276123046875
tp95
a(F76.990577697753906
F345.01077270507812
tp96
a(F94.9979248046875
F347
tp97
a(F252.00289916992188
F347
tp98
a(F259.88882446289062
F346.88882446289062
tp99
a(F316
F346.99710083007812
tp100
a(F340.99392700195312
F346.99423217773438
tp101
a(F413.17947387695312
F346.1905517578125
tp102
a(F744.003173828125
F345.00314331054688
tp103
a(F349.95706176757812
F346
tp104
a(F502.63629150390625
F346.67160034179688
tp105
a(F511.965576171875
F346.27529907226562
tp106
a(F216
F348.97439575195312
tp107
a(F322.74688720703125
F348.71072387695312
tp108
a(F96.818801879882812
F348.9449462890625
tp109
a(F243.97683715820312
F348
tp110
a(F740.989501953125
F349.01138305664062
tp111
a(F441.33807373046875
F350.70269775390625
tp112
a(F95.90325927734375
F352.19635009765625
tp113
a(F173.49418640136719
F351.59295654296875
tp114
a(F491.971923828125
F351
tp115
a(F423
F352.78652954101562
tp116
a(F827.90216064453125
F352
tp117
a(F118.01564025878906
F354.98434448242188
tp118
a(F76.02587890625
F354
tp119
a(F163
F354
tp120
a(F824.37030029296875
F355.18988037109375
tp121
a(F73.818222045898438
F356.28842163085938
tp122
a(F423.85244750976562
F356.85244750976562
tp123
a(F686.7686767578125
F356.02981567382812
tp124
a(F834.90142822265625
F355.70895385742188
tp125
a(F153.8125
F358
tp126
a(F192.08152770996094
F356.65216064453125
tp127
a(F325.83099365234375
F358
tp128
a(F895.15509033203125
F357.5386962890625
tp129
a(F147
F358.7406005859375
tp130
a(F157
F357
tp131
a(F158.97396850585938
F357.95330810546875
tp132
a(F430.921142578125
F357.55209350585938
tp133
a(F440.96353149414062
F359
tp134
a(F461
F357.08236694335938
tp135
a(F558
F359
tp136
a(F598.0230712890625
F358.97695922851562
tp137
a(F843
F357.19769287109375
tp138
a(F952.2291259765625
F358.15869140625
tp139
a(F130.72845458984375
F359.68966674804688
tp140
a(F237.99673461914062
F358.00210571289062
tp141
a(F451.31979370117188
F360
tp142
a(F458.52154541015625
F358.47845458984375
tp143
a(F86.001487731933594
F359.00137329101562
tp144
a(F427.0255126953125
F359.99563598632812
tp145
a(F460.14498901367188
F361
tp146
a(F850.33026123046875
F360.13070678710938
tp147
a(F854.95538330078125
F360.94912719726562
tp148
a(F95
F360.0283203125
tp149
a(F195.03921508789062
F360.96078491210938
tp150
a(F364.18426513671875
F360.69696044921875
tp151
a(F899.0198974609375
F361.98101806640625
tp152
a(F904
F360
tp153
a(F121.96055603027344
F361.31558227539062
tp154
a(F226.99519348144531
F361.00625610351562
tp155
a(F258.98855590820312
F362.98834228515625
tp156
a(F425.14224243164062
F362.20114135742188
tp157
a(F614.17401123046875
F363
tp158
a(F617
F363
tp159
a(F859.15863037109375
F361.15863037109375
tp160
a(F869.2044677734375
F361.2044677734375
tp161
a(F196
F364
tp162
a(F676
F362
tp163
a(F907.0045166015625
F363.99490356445312
tp164
a(F910.9815673828125
F364
tp165
a(F81.992683410644531
F363.99267578125
tp166
a(F84.950820922851562
F363
tp167
a(F428
F363.28201293945312
tp168
a(F504.97860717773438
F364.97860717773438
tp169
a(F685.9461669921875
F365
tp170
a(F947.0655517578125
F364.081787109375
tp171
a(F669.17059326171875
F366
tp172
a(F939.92034912109375
F364
tp173
a(F191.02496337890625
F366.98880004882812
tp174
a(F84.817665100097656
F367.81765747070312
tp175
a(F210.03776550292969
F367.96224975585938
tp176
a(F297
F367.99688720703125
tp177
a(F560.9947509765625
F367.99072265625
tp178
a(F485.00466918945312
F369
tp179
a(F867.266845703125
F367
tp180
a(F221
F370
tp181
a(F438.00088500976562
F370
tp182
a(F927.40521240234375
F368.7796630859375
tp183
a(F22.447292327880859
F370.12393188476562
tp184
a(F754
F369.02011108398438
tp185
a(F760
F369
tp186
a(F833
F370.99432373046875
tp187
a(F35.954147338867188
F371.95416259765625
tp188
a(F353.8013916015625
F370.1986083984375
tp189
a(F796.31719970703125
F370
tp190
a(F90.337997436523438
F372.93075561523438
tp191
a(F271.36294555664062
F373.55752563476562
tp192
a(F274.75
F372
tp193
a(F280.98919677734375
F372
tp194
a(F391.15625
F372
tp195
a(F499.99856567382812
F372.00119018554688
tp196
a(F519.00445556640625
F374
tp197
a(F93.973625183105469
F373.0263671875
tp198
a(F254.69979858398438
F374.06765747070312
tp199
a(F261.89370727539062
F373.2359619140625
tp200
a(F327.03897094726562
F373
tp201
a(F350
F375
tp202
a(F451.99395751953125
F374.99310302734375
tp203
a(F480.87551879882812
F373.94754028320312
tp204
a(F521.11383056640625
F375
tp205
a(F535.85150146484375
F374.830322265625
tp206
a(F944.05975341796875
F374.94021606445312
tp207
a(F110
F374.04327392578125
tp208
a(F735
F374
tp209
a(F154.88668823242188
F376.1671142578125
tp210
a(F412
F375.19464111328125
tp211
a(F427
F376.876708984375
tp212
a(F559
F375.0689697265625
tp213
a(F900
F376.97012329101562
tp214
a(F364.9925537109375
F377.94046020507812
tp215
a(F443.96405029296875
F376.03594970703125
tp216
a(F456
F376.08612060546875
tp217
a(F475
F378
tp218
a(F499
F376.340087890625
tp219
a(F563
F378
tp220
a(F782
F378
tp221
a(F483
F379
tp222
a(F510.00717163085938
F379
tp223
a(F523.96588134765625
F379
tp224
a(F835.00201416015625
F377.5205078125
tp225
a(F894.00927734375
F377.0068359375
tp226
a(F86.098976135253906
F380
tp227
a(F93
F378
tp228
a(F227.96052551269531
F379.96054077148438
tp229
a(F274.17425537109375
F379.26376342773438
tp230
a(F356
F380
tp231
a(F401.256103515625
F379.60806274414062
tp232
a(F421
F379.11654663085938
tp233
a(F426
F379.94036865234375
tp234
a(F648.76300048828125
F378.80206298828125
tp235
a(F297
F379
tp236
a(F327.19476318359375
F379.19476318359375
tp237
a(F417.88345336914062
F379.11654663085938
tp238
a(F432
F381
tp239
a(F610
F379.00772094726562
tp240
a(F868
F381
tp241
a(F220.31407165527344
F381.04586791992188
tp242
a(F380.99868774414062
F380.00106811523438
tp243
a(F486.06710815429688
F380.06710815429688
tp244
a(F522.9814453125
F381.98147583007812
tp245
a(F42
F381
tp246
a(F98
F382.95263671875
tp247
a(F505.27435302734375
F381.86981201171875
tp248
a(F512.9794921875
F381.01959228515625
tp249
a(F552.3402099609375
F381.57339477539062
tp250
a(F556.05419921875
F381
tp251
a(F729.95404052734375
F381
tp252
a(F795.9869384765625
F382.99090576171875
tp253
a(F803
F381.00216674804688
tp254
a(F113
F382.13265991210938
tp255
a(F398.66470336914062
F382.33529663085938
tp256
a(F492.95755004882812
F383.95755004882812
tp257
a(F529.2667236328125
F382.73269653320312
tp258
a(F818.98828125
F382
tp259
a(F849
F382
tp260
a(F896.9576416015625
F382.03875732421875
tp261
a(F24
F383
tp262
a(F129.20970153808594
F384.1148681640625
tp263
a(F219.10002136230469
F384.88568115234375
tp264
a(F226
F383.048583984375
tp265
a(F380
F385
tp266
a(F391.95797729492188
F383.03848266601562
tp267
a(F449
F383.04421997070312
tp268
a(F812
F383.01589965820312
tp269
a(F820.43426513671875
F384.43832397460938
tp270
a(F528.0101318359375
F385.9290771484375
tp271
a(F556
F384.0643310546875
tp272
a(F558.03662109375
F385.9705810546875
tp273
a(F720.02716064453125
F385.97726440429688
tp274
a(F787
F386
tp275
a(F831.13153076171875
F384
tp276
a(F898
F385.87435913085938
tp277
a(F158.91108703613281
F386.91110229492188
tp278
a(F204.91285705566406
F385.86318969726562
tp279
a(F466
F385
tp280
a(F166
F387.81219482421875
tp281
a(F177
F386.02813720703125
tp282
a(F442.77340698242188
F386.09201049804688
tp283
a(F550.22650146484375
F387.4512939453125
tp284
a(F657.23321533203125
F386.82125854492188
tp285
a(F678.91943359375
F387.312255859375
tp286
a(F189.23750305175781
F388.09750366210938
tp287
a(F195
F387
tp288
a(F273.00201416015625
F387
tp289
a(F480.39373779296875
F387.45001220703125
tp290
a(F510
F387.01364135742188
tp291
a(F535.9796142578125
F389
tp292
a(F832.9534912109375
F387.7918701171875
tp293
a(F191.03472900390625
F388
tp294
a(F298.1182861328125
F388.1182861328125
tp295
a(F304.4525146484375
F389.29446411132812
tp296
a(F735
F390
tp297
a(F284.04458618164062
F389.03857421875
tp298
a(F290.07443237304688
F390.92556762695312
tp299
a(F319
F391
tp300
a(F765.95343017578125
F389
tp301
a(F831.10650634765625
F391
tp302
a(F121
F391.90469360351562
tp303
a(F403
F392
tp304
a(F495
F390.51998901367188
tp305
a(F795
F391.5059814453125
tp306
a(F917
F392
tp307
a(F337
F391.07907104492188
tp308
a(F348.02783203125
F391.22265625
tp309
a(F408.52096557617188
F391.49200439453125
tp310
a(F445.1026611328125
F393
tp311
a(F448.01492309570312
F391.01492309570312
tp312
a(F490.32620239257812
F393
tp313
a(F732.6334228515625
F393
tp314
a(F229
F393.99322509765625
tp315
a(F313
F392.06851196289062
tp316
a(F370.43136596679688
F393.49322509765625
tp317
a(F405.19924926757812
F393.00601196289062
tp318
a(F468.93133544921875
F392
tp319
a(F112
F394.91635131835938
tp320
a(F135.11474609375
F394.88525390625
tp321
a(F303.08087158203125
F395
tp322
a(F319
F393
tp323
a(F421
F395
tp324
a(F470.4803466796875
F394.413330078125
tp325
a(F256.243408203125
F395.27847290039062
tp326
a(F283
F394
tp327
a(F298
F396
tp328
a(F465.03744506835938
F396
tp329
a(F671.07025146484375
F394.07022094726562
tp330
a(F65.909858703613281
F397
tp331
a(F204
F396.993896484375
tp332
a(F452
F397
tp333
a(F563
F395.57144165039062
tp334
a(F593
F395.09634399414062
tp335
a(F952.4569091796875
F396.14459228515625
tp336
a(F978.0074462890625
F397
tp337
a(F70.881484985351562
F397.8814697265625
tp338
a(F557.575927734375
F396.69760131835938
tp339
a(F575.9617919921875
F397.03125
tp340
a(F695
F396.23294067382812
tp341
a(F228.88551330566406
F399
tp342
a(F629.583984375
F397.416015625
tp343
a(F665.0596923828125
F397.035888671875
tp344
a(F668.9794921875
F397
tp345
a(F790
F397
tp346
a(F911.0147705078125
F398.9852294921875
tp347
a(F374.94284057617188
F399.94284057617188
tp348
a(F748.95953369140625
F400
tp349
a(F802.99066162109375
F400
tp350
a(F880
F398.05978393554688
tp351
a(F105.79776000976562
F399.96539306640625
tp352
a(F114.00667572021484
F399.00668334960938
tp353
a(F137
F399
tp354
a(F310.02398681640625
F399.02447509765625
tp355
a(F733
F400.99490356445312
tp356
a(F870
F399
tp357
a(F900
F401
tp358
a(F69.064216613769531
F400.064208984375
tp359
a(F211.92172241210938
F401.92025756835938
tp360
a(F30
F401.13739013671875
tp361
a(F139.99427795410156
F401.04580688476562
tp362
a(F218
F403
tp363
a(F220
F403.992919921875
tp364
a(F222.83711242675781
F403.31082153320312
tp365
a(F391
F402.1378173828125
tp366
a(F394.098876953125
F402.95648193359375
tp367
a(F447
F402
tp368
a(F826
F403.98220825195312
tp369
a(F38.766956329345703
F403.2330322265625
tp370
a(F367
F405
tp371
a(F140
F406
tp372
a(F201.021240234375
F404.021240234375
tp373
a(F221.12957763671875
F404.13088989257812
tp374
a(F326
F404.00759887695312
tp375
a(F368
F405.89865112304688
tp376
a(F401.95828247070312
F404.63003540039062
tp377
a(F355
F405.00653076171875
tp378
a(F393.58383178710938
F406.1829833984375
tp379
a(F766.90234375
F407
tp380
a(F143
F408
tp381
a(F274.45526123046875
F407.19668579101562
tp382
a(F788.90460205078125
F408
tp383
a(F29
F407
tp384
a(F255.0718994140625
F408.9302978515625
tp385
a(F293
F408.98019409179688
tp386
a(F342.51080322265625
F408.45272827148438
tp387
a(F476.00613403320312
F408.99392700195312
tp388
a(F325.0799560546875
F409.09332275390625
tp389
a(F732
F410
tp390
a(F777.0506591796875
F409.952880859375
tp391
a(F131
F411
tp392
a(F145.38044738769531
F411
tp393
a(F271.01171875
F410.98828125
tp394
a(F289
F409
tp395
a(F577.72674560546875
F411
tp396
a(F585.233642578125
F410.76638793945312
tp397
a(F792.69842529296875
F410.69842529296875
tp398
a(F277
F412
tp399
a(F720
F410.04901123046875
tp400
a(F41
F413
tp401
a(F69
F411.01992797851562
tp402
a(F113.24672698974609
F411.98733520507812
tp403
a(F202.99331665039062
F411.0081787109375
tp404
a(F225.00527954101562
F413
tp405
a(F305.99130249023438
F411.01620483398438
tp406
a(F356.13043212890625
F413
tp407
a(F733.94140625
F411.06692504882812
tp408
a(F36
F412
tp409
a(F51
F413.91168212890625
tp410
a(F208
F414
tp411
a(F360
F413.95846557617188
tp412
a(F695.98638916015625
F413.98895263671875
tp413
a(F705.03204345703125
F412.25631713867188
tp414
a(F58.950874328613281
F413.05615234375
tp415
a(F339
F413.13507080078125
tp416
a(F736
F413.08145141601562
tp417
a(F27.049846649169922
F416
tp418
a(F120.95286560058594
F415.915771484375
tp419
a(F316
F416
tp420
a(F572.0064697265625
F415.99435424804688
tp421
a(F246.06752014160156
F416.0771484375
tp422
a(F254.03462219238281
F417.96539306640625
tp423
a(F259.182861328125
F416.62869262695312
tp424
a(F285
F418.99783325195312
tp425
a(F547.5623779296875
F418.1876220703125
tp426
a(F682
F417.59005737304688
tp427
a(F259
F420
tp428
a(F271.11483764648438
F420
tp429
a(F385.79214477539062
F418.20785522460938
tp430
a(F469
F419.91366577148438
tp431
a(F569.95556640625
F418
tp432
a(F222.00750732421875
F420.99459838867188
tp433
a(F484.00741577148438
F420.992919921875
tp434
a(F565.75
F421
tp435
a(F574
F421
tp436
a(F190.01947021484375
F420.92465209960938
tp437
a(F193.07594299316406
F421.92404174804688
tp438
a(F343
F420.00537109375
tp439
a(F416
F420
tp440
a(F524.6690673828125
F421.12661743164062
tp441
a(F328.2955322265625
F423
tp442
a(F500
F422.89486694335938
tp443
a(F516
F421.0286865234375
tp444
a(F178.99478149414062
F423.2664794921875
tp445
a(F285.25
F424
tp446
a(F494.88998413085938
F422.68630981445312
tp447
a(F550.94659423828125
F423.9808349609375
tp448
a(F654.0277099609375
F422.22189331054688
tp449
a(F185.02816772460938
F424.99649047851562
tp450
a(F189.055908203125
F424.944091796875
tp451
a(F263.9920654296875
F423.0009765625
tp452
a(F352
F423
tp453
a(F470.03280639648438
F423.87484741210938
tp454
a(F490.99099731445312
F424.99102783203125
tp455
a(F553.02880859375
F424.97119140625
tp456
a(F556
F423
tp457
a(F564
F424.733642578125
tp458
a(F111.28035736083984
F426
tp459
a(F121.95135498046875
F425.61080932617188
tp460
a(F180.04762268066406
F425.14114379882812
tp461
a(F468.62661743164062
F424.71612548828125
tp462
a(F478
F424
tp463
a(F496.02587890625
F425.97454833984375
tp464
a(F526.93511962890625
F424
tp465
a(F529.47027587890625
F426
tp466
a(F540.2391357421875
F424.27325439453125
tp467
a(F103.90543365478516
F427
tp468
a(F372.10873413085938
F427
tp469
a(F510.98779296875
F425.01492309570312
tp470
a(F44
F426.04217529296875
tp471
a(F416.00881958007812
F426.00830078125
tp472
a(F76
F428.92025756835938
tp473
a(F80.43017578125
F429
tp474
a(F663.91986083984375
F428.20126342773438
tp475
a(F305
F430
tp476
a(F36
F431.02725219726562
tp477
a(F48.281642913818359
F432.16668701171875
tp478
a(F323
F433
tp479
a(F617.982666015625
F431
tp480
a(F600
F435
tp481
a(F276.15396118164062
F436
tp482
a(F280
F436
tp483
a(F793.0238037109375
F436
tp484
a(F617.9930419921875
F438.00595092773438
tp485
a(F832.0491943359375
F438
tp486
a(F561.057373046875
F440.94259643554688
tp487
a(F658
F441
tp488
a(F727
F439.35369873046875
tp489
a(F128.97610473632812
F441.01693725585938
tp490
a(F591
F444
tp491
a(F765.22845458984375
F443.77154541015625
tp492
a(F916
F442
tp493
a(F595
F445
tp494
a(F687.177001953125
F444.177001953125
tp495
a(F155
F444
tp496
a(F575
F444.07415771484375
tp497
a(F112
F447
tp498
a(F153
F446.56277465820312
tp499
a(F564
F448
tp500
a(F652.0888671875
F447.38671875
tp501
a(F664
F448
tp502
a(F113.36133575439453
F448.84210205078125
tp503
a(F672.9412841796875
F448.94125366210938
tp504
a(F758.0487060546875
F447.04263305664062
tp505
a(F408
F448.46200561523438
tp506
a(F105
F449
tp507
a(F680
F452
tp508
a(F906.82904052734375
F450.14956665039062
tp509
a(F63.96942138671875
F453.1319580078125
tp510
a(F271.00552368164062
F454.00643920898438
tp511
a(F663.034912109375
F454
tp512
a(F710.62286376953125
F456
tp513
a(F428.01345825195312
F456.01345825195312
tp514
a(F721
F457.95980834960938
tp515
a(F558.040771484375
F457
tp516
a(F585.0150146484375
F459.9849853515625
tp517
a(F763.6192626953125
F460.48016357421875
tp518
a(F423.02102661132812
F460.16824340820312
tp519
a(F742
F462
tp520
a(F710
F462.97689819335938
tp521
a(F720.7265625
F461.95303344726562
tp522
a(F745
F463.81893920898438
tp523
a(F717.47998046875
F465
tp524
a(F466.97933959960938
F469.98046875
tp525
a(F554
F474
tp526
a(F770.3056640625
F475.00088500976562
tp527
a(F693
F478.29461669921875
tp528
a(F772.9061279296875
F480
tp529
a(F689.73974609375
F481
tp530
a(F696.77392578125
F481
tp531
a(F698.14666748046875
F479
tp532
a(F730
F479.00714111328125
tp533
a(F740.09930419921875
F481
tp534
a(F719.93304443359375
F483
tp535
a(F69.094886779785156
F484
tp536
a(F577.9708251953125
F482
tp537
a(F580.94024658203125
F482
tp538
a(F747
F484
tp539
a(F774.59124755859375
F484.72744750976562
tp540
a(F574
F486.95101928710938
tp541
a(F688
F485.09515380859375
tp542
a(F747.008056640625
F485.0645751953125
tp543
a(F573
F486.02474975585938
tp544
a(F705.03778076171875
F489.03842163085938
tp545
a(F557.268798828125
F492.08258056640625
tp546
a(F600.02197265625
F493.99685668945312
tp547
a(F575
F495
tp548
a(F585.29180908203125
F494.42977905273438
tp549
a(F705.02001953125
F493.02560424804688
tp550
a(F594.95751953125
F496
tp551
a(F700
F494
tp552
a(F717.007568359375
F494.00753784179688
tp553
a(F570
F496.9990234375
tp554
a(F587
F498.94033813476562
tp555
a(F595.97845458984375
F498.97845458984375
tp556
a(F620.18597412109375
F497.18597412109375
tp557
a(F637.9169921875
F499
tp558
a(F580.95770263671875
F499
tp559
a(F939.01202392578125
F511.98464965820312
tp560
a(F531.86474609375
F520
tp561
a(F523.8486328125
F644.9193115234375
tp562
a(F841.135986328125
F653.91387939453125
tp563
a(F733
F664
tp564
a(F843.013671875
F699.0137939453125
tp565
a(F633.00872802734375
F707.00872802734375
tp566
a(F680.3529052734375
F714
tp567
a(F641.00152587890625
F717.00140380859375
tp568
a(F514.14520263671875
F723
tp569
a(F309
F725
tp570
a(F40.566295623779297
F337.5662841796875
tp571
a(F67
F339
tp572
a(F189
F339
tp573
a(F693.6051025390625
F356.30804443359375
tp574
a(F427.1597900390625
F357.03500366210938
tp575
a(F250.75
F360.25
tp576
a(F460.595947265625
F359.13235473632812
tp577
a(F946.7601318359375
F360.36163330078125
tp578
a(F972.12237548828125
F372.12237548828125
tp579
a(F169.77308654785156
F373.80538940429688
tp580
a(F221.16326904296875
F374.5198974609375
tp581
a(F896.7197265625
F375.79290771484375
tp582
a(F271.77456665039062
F394.75
tp583
a(F128.76748657226562
F409.0855712890625
tp584
a(F316.43923950195312
F415.67962646484375
tp585
a(F739.75
F415.75
tp586
a(F470.5
F420.25
tp587
a(F493.6932373046875
F423.17315673828125
tp588
a(F654.51885986328125
F445.96942138671875
tp589
a(F663.212158203125
F444.66583251953125
tp590
a(F555.31005859375
F492.2254638671875
tp591
a(F50.173103332519531
F334.11349487304688
tp592
a(F740.90765380859375
F337.70071411132812
tp593
a(F766.7427978515625
F338.45425415039062
tp594
a(F170.5
F342.5
tp595
a(F243.45881652832031
F342.308837890625
tp596
a(F234.63493347167969
F341.57949829101562
tp597
a(F520.810546875
F344.396484375
tp598
a(F345.75
F342.75
tp599
a(F413.12606811523438
F344.15948486328125
tp600
a(F324.5
F344.5
tp601
a(F895.28802490234375
F358.00140380859375
tp602
a(F952.31549072265625
F360.6546630859375
tp603
a(F522.5
F365.906494140625
tp604
a(F220.43449401855469
F375.52227783203125
tp605
a(F426.5
F380.25
tp606
a(F162.5
F384.5
tp607
a(F454.5
F385.285400390625
tp608
a(F831.8763427734375
F387.19094848632812
tp609
a(F492.04934692382812
F390.5
tp610
a(F107.18349456787109
F402.5
tp611
a(F380.5
F411.87319946289062
tp612
a(F420.5
F416.25
tp613
a(F508.5
F420.5
tp614
a(F469.384765625
F419.51113891601562
tp615
a(F494.16293334960938
F422.96295166015625
tp616
a(F500.5
F424.5
tp617
a(F371.52999877929688
F426.19970703125
tp618
a(F617.50982666015625
F430.5
tp619
a(F650.5
F435.53912353515625
tp620
a(F618.69317626953125
F450.5
tp621
a(F392.50213623046875
F182.1434326171875
tp622
a(F172.92472839355469
F338.02200317382812
tp623
a(F181.19082641601562
F336.28985595703125
tp624
a(F228.214111328125
F340.51666259765625
tp625
a(F248.65174865722656
F339.11865234375
tp626
a(F768.5
F342.5
tp627
a(F283.534423828125
F343.6260986328125
tp628
a(F343.51409912109375
F348.82864379882812
tp629
a(F373.06216430664062
F376.08233642578125
tp630
a(F402.6739501953125
F388.67391967773438
tp631
a(F69.119003295898438
F396.24188232421875
tp632
a(F837.7899169921875
F402.31121826171875
tp633
a(F493.08074951171875
F418.03671264648438
tp634
a(F112.5
F426.5
tp635
a(F416.42153930664062
F452.42153930664062
tp636
a(F401
F181.5
tp637
a(F155.91270446777344
F337.5
tp638
a(F337.5
F337.5
tp639
a(F405.22369384765625
F378.97369384765625
tp640
a(F558.89849853515625
F417.74990844726562
tp641
a(F470.5
F425.5
tp642
a(F563.63983154296875
F479.63986206054688
tp643
a(F395.77081298828125
F181.95272827148438
tp644
a(F758.5
F338.5
tp645
a(F434.5
F464.5
tp646
a.